target datalayout = "e-m:e-p270:32:32-p271:32:32-p272:64:64-i64:64-i128:128-f80:128-n8:16:32:64-S128"
target triple = "x86_64-pc-linux-gnu"

%class.InjectedField = type { i32, i32, i32, i8 }

; Function Attrs: mustprogress nounwind uwtable
define hidden noundef ptr @_ZN11JavaClasses12get_injectedEP6SymbolPi(ptr noundef %0, ptr noundef %1) #1 align 2 {
  %3 = alloca ptr, align 8
  %4 = alloca ptr, align 8
  %5 = alloca ptr, align 8
  %6 = alloca i32, align 4
  %7 = alloca i32, align 4
  %8 = alloca i32, align 4
  store ptr %0, ptr %4, align 8
  store ptr %1, ptr %5, align 8
  %9 = load ptr, ptr %5, align 8
  store i32 0, ptr %9, align 4
  %10 = load ptr, ptr %4, align 8
  %11 = call noundef i32 @_ZN9vmSymbols8find_sidEPK6Symbol(ptr noundef %10)
  store i32 %11, ptr %6, align 4
  %12 = load i32, ptr %6, align 4
  %13 = icmp eq i32 %12, 0
  br i1 %13, label %14, label %15

14:                                               ; preds = %2
  store ptr null, ptr %3, align 8
  br label %265

15:                                               ; preds = %2
  store i32 0, ptr %7, align 4
  store i32 -1, ptr %8, align 4
  %16 = load i32, ptr %6, align 4
  %17 = icmp eq i32 %16, 6
  br i1 %17, label %18, label %25

18:                                               ; preds = %15
  %19 = load i32, ptr %7, align 4
  %20 = add nsw i32 %19, 1
  store i32 %20, ptr %7, align 4
  %21 = load i32, ptr %8, align 4
  %22 = icmp eq i32 %21, -1
  br i1 %22, label %23, label %24

23:                                               ; preds = %18
  store i32 0, ptr %8, align 4
  br label %24

24:                                               ; preds = %23, %18
  br label %25

25:                                               ; preds = %24, %15
  %26 = load i32, ptr %6, align 4
  %27 = icmp eq i32 %26, 4
  br i1 %27, label %28, label %35

28:                                               ; preds = %25
  %29 = load i32, ptr %7, align 4
  %30 = add nsw i32 %29, 1
  store i32 %30, ptr %7, align 4
  %31 = load i32, ptr %8, align 4
  %32 = icmp eq i32 %31, -1
  br i1 %32, label %33, label %34

33:                                               ; preds = %28
  store i32 1, ptr %8, align 4
  br label %34

34:                                               ; preds = %33, %28
  br label %35

35:                                               ; preds = %34, %25
  %36 = load i32, ptr %6, align 4
  %37 = icmp eq i32 %36, 4
  br i1 %37, label %38, label %45

38:                                               ; preds = %35
  %39 = load i32, ptr %7, align 4
  %40 = add nsw i32 %39, 1
  store i32 %40, ptr %7, align 4
  %41 = load i32, ptr %8, align 4
  %42 = icmp eq i32 %41, -1
  br i1 %42, label %43, label %44

43:                                               ; preds = %38
  store i32 2, ptr %8, align 4
  br label %44

44:                                               ; preds = %43, %38
  br label %45

45:                                               ; preds = %44, %35
  %46 = load i32, ptr %6, align 4
  %47 = icmp eq i32 %46, 4
  br i1 %47, label %48, label %55

48:                                               ; preds = %45
  %49 = load i32, ptr %7, align 4
  %50 = add nsw i32 %49, 1
  store i32 %50, ptr %7, align 4
  %51 = load i32, ptr %8, align 4
  %52 = icmp eq i32 %51, -1
  br i1 %52, label %53, label %54

53:                                               ; preds = %48
  store i32 3, ptr %8, align 4
  br label %54

54:                                               ; preds = %53, %48
  br label %55

55:                                               ; preds = %54, %45
  %56 = load i32, ptr %6, align 4
  %57 = icmp eq i32 %56, 4
  br i1 %57, label %58, label %65

58:                                               ; preds = %55
  %59 = load i32, ptr %7, align 4
  %60 = add nsw i32 %59, 1
  store i32 %60, ptr %7, align 4
  %61 = load i32, ptr %8, align 4
  %62 = icmp eq i32 %61, -1
  br i1 %62, label %63, label %64

63:                                               ; preds = %58
  store i32 4, ptr %8, align 4
  br label %64

64:                                               ; preds = %63, %58
  br label %65

65:                                               ; preds = %64, %55
  %66 = load i32, ptr %6, align 4
  %67 = icmp eq i32 %66, 4
  br i1 %67, label %68, label %75

68:                                               ; preds = %65
  %69 = load i32, ptr %7, align 4
  %70 = add nsw i32 %69, 1
  store i32 %70, ptr %7, align 4
  %71 = load i32, ptr %8, align 4
  %72 = icmp eq i32 %71, -1
  br i1 %72, label %73, label %74

73:                                               ; preds = %68
  store i32 5, ptr %8, align 4
  br label %74

74:                                               ; preds = %73, %68
  br label %75

75:                                               ; preds = %74, %65
  %76 = load i32, ptr %6, align 4
  %77 = icmp eq i32 %76, 4
  br i1 %77, label %78, label %85

78:                                               ; preds = %75
  %79 = load i32, ptr %7, align 4
  %80 = add nsw i32 %79, 1
  store i32 %80, ptr %7, align 4
  %81 = load i32, ptr %8, align 4
  %82 = icmp eq i32 %81, -1
  br i1 %82, label %83, label %84

83:                                               ; preds = %78
  store i32 6, ptr %8, align 4
  br label %84

84:                                               ; preds = %83, %78
  br label %85

85:                                               ; preds = %84, %75
  %86 = load i32, ptr %6, align 4
  %87 = icmp eq i32 %86, 4
  br i1 %87, label %88, label %95

88:                                               ; preds = %85
  %89 = load i32, ptr %7, align 4
  %90 = add nsw i32 %89, 1
  store i32 %90, ptr %7, align 4
  %91 = load i32, ptr %8, align 4
  %92 = icmp eq i32 %91, -1
  br i1 %92, label %93, label %94

93:                                               ; preds = %88
  store i32 7, ptr %8, align 4
  br label %94

94:                                               ; preds = %93, %88
  br label %95

95:                                               ; preds = %94, %85
  %96 = load i32, ptr %6, align 4
  %97 = icmp eq i32 %96, 18
  br i1 %97, label %98, label %105

98:                                               ; preds = %95
  %99 = load i32, ptr %7, align 4
  %100 = add nsw i32 %99, 1
  store i32 %100, ptr %7, align 4
  %101 = load i32, ptr %8, align 4
  %102 = icmp eq i32 %101, -1
  br i1 %102, label %103, label %104

103:                                              ; preds = %98
  store i32 8, ptr %8, align 4
  br label %104

104:                                              ; preds = %103, %98
  br label %105

105:                                              ; preds = %104, %95
  %106 = load i32, ptr %6, align 4
  %107 = icmp eq i32 %106, 274
  br i1 %107, label %108, label %115

108:                                              ; preds = %105
  %109 = load i32, ptr %7, align 4
  %110 = add nsw i32 %109, 1
  store i32 %110, ptr %7, align 4
  %111 = load i32, ptr %8, align 4
  %112 = icmp eq i32 %111, -1
  br i1 %112, label %113, label %114

113:                                              ; preds = %108
  store i32 9, ptr %8, align 4
  br label %114

114:                                              ; preds = %113, %108
  br label %115

115:                                              ; preds = %114, %105
  %116 = load i32, ptr %6, align 4
  %117 = icmp eq i32 %116, 273
  br i1 %117, label %118, label %125

118:                                              ; preds = %115
  %119 = load i32, ptr %7, align 4
  %120 = add nsw i32 %119, 1
  store i32 %120, ptr %7, align 4
  %121 = load i32, ptr %8, align 4
  %122 = icmp eq i32 %121, -1
  br i1 %122, label %123, label %124

123:                                              ; preds = %118
  store i32 10, ptr %8, align 4
  br label %124

124:                                              ; preds = %123, %118
  br label %125

125:                                              ; preds = %124, %115
  %126 = load i32, ptr %6, align 4
  %127 = icmp eq i32 %126, 276
  br i1 %127, label %128, label %135

128:                                              ; preds = %125
  %129 = load i32, ptr %7, align 4
  %130 = add nsw i32 %129, 1
  store i32 %130, ptr %7, align 4
  %131 = load i32, ptr %8, align 4
  %132 = icmp eq i32 %131, -1
  br i1 %132, label %133, label %134

133:                                              ; preds = %128
  store i32 11, ptr %8, align 4
  br label %134

134:                                              ; preds = %133, %128
  br label %135

135:                                              ; preds = %134, %125
  %136 = load i32, ptr %6, align 4
  %137 = icmp eq i32 %136, 276
  br i1 %137, label %138, label %145

138:                                              ; preds = %135
  %139 = load i32, ptr %7, align 4
  %140 = add nsw i32 %139, 1
  store i32 %140, ptr %7, align 4
  %141 = load i32, ptr %8, align 4
  %142 = icmp eq i32 %141, -1
  br i1 %142, label %143, label %144

143:                                              ; preds = %138
  store i32 12, ptr %8, align 4
  br label %144

144:                                              ; preds = %143, %138
  br label %145

145:                                              ; preds = %144, %135
  %146 = load i32, ptr %6, align 4
  %147 = icmp eq i32 %146, 375
  br i1 %147, label %148, label %155

148:                                              ; preds = %145
  %149 = load i32, ptr %7, align 4
  %150 = add nsw i32 %149, 1
  store i32 %150, ptr %7, align 4
  %151 = load i32, ptr %8, align 4
  %152 = icmp eq i32 %151, -1
  br i1 %152, label %153, label %154

153:                                              ; preds = %148
  store i32 13, ptr %8, align 4
  br label %154

154:                                              ; preds = %153, %148
  br label %155

155:                                              ; preds = %154, %145
  %156 = load i32, ptr %6, align 4
  %157 = icmp eq i32 %156, 5
  br i1 %157, label %158, label %165

158:                                              ; preds = %155
  %159 = load i32, ptr %7, align 4
  %160 = add nsw i32 %159, 1
  store i32 %160, ptr %7, align 4
  %161 = load i32, ptr %8, align 4
  %162 = icmp eq i32 %161, -1
  br i1 %162, label %163, label %164

163:                                              ; preds = %158
  store i32 14, ptr %8, align 4
  br label %164

164:                                              ; preds = %163, %158
  br label %165

165:                                              ; preds = %164, %155
  %166 = load i32, ptr %6, align 4
  %167 = icmp eq i32 %166, 9
  br i1 %167, label %168, label %175

168:                                              ; preds = %165
  %169 = load i32, ptr %7, align 4
  %170 = add nsw i32 %169, 1
  store i32 %170, ptr %7, align 4
  %171 = load i32, ptr %8, align 4
  %172 = icmp eq i32 %171, -1
  br i1 %172, label %173, label %174

173:                                              ; preds = %168
  store i32 15, ptr %8, align 4
  br label %174

174:                                              ; preds = %173, %168
  br label %175

175:                                              ; preds = %174, %165
  %176 = load i32, ptr %6, align 4
  %177 = icmp eq i32 %176, 9
  br i1 %177, label %178, label %185

178:                                              ; preds = %175
  %179 = load i32, ptr %7, align 4
  %180 = add nsw i32 %179, 1
  store i32 %180, ptr %7, align 4
  %181 = load i32, ptr %8, align 4
  %182 = icmp eq i32 %181, -1
  br i1 %182, label %183, label %184

183:                                              ; preds = %178
  store i32 16, ptr %8, align 4
  br label %184

184:                                              ; preds = %183, %178
  br label %185

185:                                              ; preds = %184, %175
  %186 = load i32, ptr %6, align 4
  %187 = icmp eq i32 %186, 9
  br i1 %187, label %188, label %195

188:                                              ; preds = %185
  %189 = load i32, ptr %7, align 4
  %190 = add nsw i32 %189, 1
  store i32 %190, ptr %7, align 4
  %191 = load i32, ptr %8, align 4
  %192 = icmp eq i32 %191, -1
  br i1 %192, label %193, label %194

193:                                              ; preds = %188
  store i32 17, ptr %8, align 4
  br label %194

194:                                              ; preds = %193, %188
  br label %195

195:                                              ; preds = %194, %185
  %196 = load i32, ptr %6, align 4
  %197 = icmp eq i32 %196, 9
  br i1 %197, label %198, label %205

198:                                              ; preds = %195
  %199 = load i32, ptr %7, align 4
  %200 = add nsw i32 %199, 1
  store i32 %200, ptr %7, align 4
  %201 = load i32, ptr %8, align 4
  %202 = icmp eq i32 %201, -1
  br i1 %202, label %203, label %204

203:                                              ; preds = %198
  store i32 18, ptr %8, align 4
  br label %204

204:                                              ; preds = %203, %198
  br label %205

205:                                              ; preds = %204, %195
  %206 = load i32, ptr %6, align 4
  %207 = icmp eq i32 %206, 166
  br i1 %207, label %208, label %215

208:                                              ; preds = %205
  %209 = load i32, ptr %7, align 4
  %210 = add nsw i32 %209, 1
  store i32 %210, ptr %7, align 4
  %211 = load i32, ptr %8, align 4
  %212 = icmp eq i32 %211, -1
  br i1 %212, label %213, label %214

213:                                              ; preds = %208
  store i32 19, ptr %8, align 4
  br label %214

214:                                              ; preds = %213, %208
  br label %215

215:                                              ; preds = %214, %205
  %216 = load i32, ptr %6, align 4
  %217 = icmp eq i32 %216, 21
  br i1 %217, label %218, label %225

218:                                              ; preds = %215
  %219 = load i32, ptr %7, align 4
  %220 = add nsw i32 %219, 1
  store i32 %220, ptr %7, align 4
  %221 = load i32, ptr %8, align 4
  %222 = icmp eq i32 %221, -1
  br i1 %222, label %223, label %224

223:                                              ; preds = %218
  store i32 20, ptr %8, align 4
  br label %224

224:                                              ; preds = %223, %218
  br label %225

225:                                              ; preds = %224, %215
  %226 = load i32, ptr %6, align 4
  %227 = icmp eq i32 %226, 21
  br i1 %227, label %228, label %235

228:                                              ; preds = %225
  %229 = load i32, ptr %7, align 4
  %230 = add nsw i32 %229, 1
  store i32 %230, ptr %7, align 4
  %231 = load i32, ptr %8, align 4
  %232 = icmp eq i32 %231, -1
  br i1 %232, label %233, label %234

233:                                              ; preds = %228
  store i32 21, ptr %8, align 4
  br label %234

234:                                              ; preds = %233, %228
  br label %235

235:                                              ; preds = %234, %225
  %236 = load i32, ptr %6, align 4
  %237 = icmp eq i32 %236, 21
  br i1 %237, label %238, label %245

238:                                              ; preds = %235
  %239 = load i32, ptr %7, align 4
  %240 = add nsw i32 %239, 1
  store i32 %240, ptr %7, align 4
  %241 = load i32, ptr %8, align 4
  %242 = icmp eq i32 %241, -1
  br i1 %242, label %243, label %244

243:                                              ; preds = %238
  store i32 22, ptr %8, align 4
  br label %244

244:                                              ; preds = %243, %238
  br label %245

245:                                              ; preds = %244, %235
  %246 = load i32, ptr %6, align 4
  %247 = icmp eq i32 %246, 21
  br i1 %247, label %248, label %255

248:                                              ; preds = %245
  %249 = load i32, ptr %7, align 4
  %250 = add nsw i32 %249, 1
  store i32 %250, ptr %7, align 4
  %251 = load i32, ptr %8, align 4
  %252 = icmp eq i32 %251, -1
  br i1 %252, label %253, label %254

253:                                              ; preds = %248
  store i32 23, ptr %8, align 4
  br label %254

254:                                              ; preds = %253, %248
  br label %255

255:                                              ; preds = %254, %245
  %256 = load i32, ptr %8, align 4
  %257 = icmp ne i32 %256, -1
  br i1 %257, label %258, label %264

258:                                              ; preds = %255
  %259 = load i32, ptr %7, align 4
  %260 = load ptr, ptr %5, align 8
  store i32 %259, ptr %260, align 4
  %261 = load i32, ptr %8, align 4
  %262 = sext i32 %261 to i64
  %263 = getelementptr inbounds %class.InjectedField, ptr @_ZN11JavaClasses16_injected_fieldsE, i64 %262
  store ptr %263, ptr %3, align 8
  br label %265

264:                                              ; preds = %255
  store ptr null, ptr %3, align 8
  br label %265

265:                                              ; preds = %264, %258, %14
  %266 = load ptr, ptr %3, align 8
  ret ptr %266
}