; Function Attrs: mustprogress nounwind uwtable
define hidden noundef ptr @_ZN11JavaClasses12get_injectedEP6SymbolPi(ptr noundef %0, ptr nocapture noundef writeonly %1) local_unnamed_addr #0 align 2 {
  store i32 0, ptr %1, align 4
  %3 = tail call noundef i32 @_ZN9vmSymbols8find_sidEPK6Symbol(ptr noundef %0) #19
  switch i32 %3, label %5 [
    i32 0, label %50
    i32 6, label %4
  ]

4:                                                ; preds = %2
  br label %5

5:                                                ; preds = %2, %4
  %.0102 = phi i32 [ 1, %4 ], [ 0, %2 ]
  %.0 = phi i32 [ 0, %4 ], [ -1, %2 ]
  %6 = icmp eq i32 %3, 4
  %.7 = select i1 %6, i32 1, i32 %.0
  %7 = icmp eq i32 %3, 18
  %8 = icmp eq i32 %.7, -1
  %9 = and i1 %7, %8
  %.8 = select i1 %9, i32 8, i32 %.7
  %10 = icmp eq i32 %3, 274
  %11 = icmp eq i32 %.8, -1
  %12 = and i1 %10, %11
  %.9 = select i1 %12, i32 9, i32 %.8
  %13 = icmp eq i32 %3, 273
  %14 = icmp eq i32 %.9, -1
  %15 = select i1 %13, i1 %14, i1 false
  %.10 = select i1 %15, i32 10, i32 %.9
  %16 = icmp eq i32 %3, 276
  %17 = icmp eq i32 %.10, -1
  %18 = select i1 %16, i1 %17, i1 false
  %.11 = select i1 %18, i32 11, i32 %.10
  %19 = icmp eq i32 %.11, -1
  %spec.store.select12 = select i1 %19, i32 12, i32 %.11
  %.12 = select i1 %16, i32 %spec.store.select12, i32 %.10
  %20 = icmp eq i32 %3, 375
  %21 = icmp eq i32 %.12, -1
  %22 = select i1 %20, i1 %21, i1 false
  %.13 = select i1 %22, i32 13, i32 %.12
  %23 = icmp eq i32 %3, 5
  %24 = icmp eq i32 %.13, -1
  %25 = select i1 %23, i1 %24, i1 false
  %.14 = select i1 %25, i32 14, i32 %.13
  %26 = icmp eq i32 %3, 9
  %27 = icmp eq i32 %.14, -1
  %28 = select i1 %26, i1 %27, i1 false
  %.15 = select i1 %28, i32 15, i32 %.14
  %29 = icmp eq i32 %.15, -1
  %spec.store.select16 = select i1 %29, i32 16, i32 %.15
  %.18 = select i1 %26, i32 %spec.store.select16, i32 %.14
  %30 = icmp eq i32 %3, 166
  %31 = icmp eq i32 %.18, -1
  %32 = select i1 %30, i1 %31, i1 false
  %.19 = select i1 %32, i32 19, i32 %.18
  %33 = icmp eq i32 %3, 21
  %34 = icmp eq i32 %.19, -1
  %35 = select i1 %33, i1 %34, i1 false
  %.20 = select i1 %35, i32 20, i32 %.19
  %36 = icmp eq i32 %.20, -1
  %spec.store.select21 = select i1 %36, i32 21, i32 %.20
  %.23 = select i1 %33, i32 %spec.store.select21, i32 %.19
  %.not128 = icmp eq i32 %.23, -1
  br i1 %.not128, label %50, label %37

37:                                               ; preds = %5
  %38 = select i1 %6, i32 7, i32 0
  %.7109 = add nuw nsw i32 %.0102, %38
  %39 = zext i1 %7 to i32
  %40 = zext i1 %10 to i32
  %41 = zext i1 %13 to i32
  %.8110 = add nuw nsw i32 %40, %39
  %.9111 = add nuw nsw i32 %.8110, %41
  %.10112 = add nuw nsw i32 %.9111, %.7109
  %42 = select i1 %16, i32 2, i32 0
  %.12114 = add nuw nsw i32 %.10112, %42
  %43 = zext i1 %20 to i32
  %44 = zext i1 %23 to i32
  %.13115 = add nuw nsw i32 %44, %43
  %.14116 = add nuw nsw i32 %.13115, %.12114
  %45 = select i1 %26, i32 4, i32 0
  %.18120 = add nuw nsw i32 %.14116, %45
  %46 = zext i1 %30 to i32
  %.19121 = add nuw nsw i32 %.18120, %46
  %47 = select i1 %33, i32 4, i32 0
  %.23125 = add nuw nsw i32 %.19121, %47
  store i32 %.23125, ptr %1, align 4
  %48 = zext nneg i32 %.23 to i64
  %49 = getelementptr inbounds %class.InjectedField, ptr @_ZN11JavaClasses16_injected_fieldsE, i64 %48
  br label %50

50:                                               ; preds = %5, %2, %37
  %.0126 = phi ptr [ %49, %37 ], [ null, %2 ], [ null, %5 ]
  ret ptr %.0126
}